; Function Attrs: mustprogress nounwind uwtable
define dso_local void @_ZN4llvm16IntervalPressure10openBottomENS_9SlotIndexE(ptr noundef nonnull align 8 dereferenceable(328) %0, i64 %1) local_unnamed_addr #0 align 2 {
  %3 = getelementptr inbounds nuw i8, ptr %0, i64 320
  %.0.copyload.i.i.i.i.i.i = load i64, ptr %3, align 8
  %4 = and i64 %.0.copyload.i.i.i.i.i.i, -8
  %5 = inttoptr i64 %4 to ptr
  %6 = getelementptr inbounds nuw i8, ptr %5, i64 24
  %7 = load i32, ptr %6, align 8
  %8 = trunc i64 %.0.copyload.i.i.i.i.i.i to i32
  %9 = lshr i32 %8, 1
  %10 = and i32 %9, 3
  %11 = or i32 %10, %7
  %12 = and i64 %1, -8
  %13 = inttoptr i64 %12 to ptr
  %14 = getelementptr inbounds nuw i8, ptr %13, i64 24
  %15 = load i32, ptr %14, align 8
  %16 = trunc i64 %1 to i32
  %17 = lshr i32 %16, 1
  %18 = and i32 %17, 3
  %19 = or i32 %15, %18
  %20 = icmp ugt i32 %11, %19
  br i1 %20, label %25, label %21

21:                                               ; preds = %2
  store i64 0, ptr %3, align 8
  %22 = getelementptr inbounds nuw i8, ptr %0, i64 24
  %23 = tail call noundef i64 @_ZNK4llvm15SmallVectorBaseIjE4sizeEv(ptr noundef nonnull align 8 dereferenceable(16) %22) #14
  %24 = getelementptr inbounds i8, ptr %0, i64 32
  store i32 0, ptr %24, align 8
  br label %25

25:                                               ; preds = %2, %21
  ret void
}